; Function Attrs: mustprogress uwtable
define void @_ZN3zmq29zap_client_common_handshake_t22handle_zap_status_codeEv(ptr noundef nonnull align 8 dereferenceable(80) %this) unnamed_addr #0 align 2 {
entry:
  %status_code.i = getelementptr inbounds i8, ptr %this, i64 40
  %call.i = tail call noundef nonnull align 1 dereferenceable(1) ptr @_ZNSt7__cxx1112basic_stringIcSt11char_traitsIcESaIcEEixEm(ptr noundef nonnull align 8 dereferenceable(32) %status_code.i, i64 noundef 0)
  %0 = load i8, ptr %call.i, align 1
  switch i8 %0, label %sw.epilog.i [
    i8 50, label %_ZN3zmq12zap_client_t22handle_zap_status_codeEv.exit
    i8 51, label %sw.bb2.i
    i8 52, label %sw.bb3.i
    i8 53, label %sw.bb4.i
  ]

sw.bb2.i:                                         ; preds = %entry
  br label %sw.epilog.i

sw.bb3.i:                                         ; preds = %entry
  br label %sw.epilog.i

sw.bb4.i:                                         ; preds = %entry
  br label %sw.epilog.i

sw.epilog.i:                                      ; preds = %sw.bb4.i, %sw.bb3.i, %sw.bb2.i, %entry
  %status_code_numeric.0.i = phi i32 [ 0, %entry ], [ 500, %sw.bb4.i ], [ 400, %sw.bb3.i ], [ 300, %sw.bb2.i ]
  %vtable.i = load ptr, ptr %this, align 8
  %vbase.offset.ptr.i = getelementptr i8, ptr %vtable.i, i64 -24
  %vbase.offset.i = load i64, ptr %vbase.offset.ptr.i, align 8
  %add.ptr.i = getelementptr inbounds i8, ptr %this, i64 %vbase.offset.i
  %session.i = getelementptr inbounds i8, ptr %add.ptr.i, i64 1488
  %1 = load ptr, ptr %session.i, align 8
  %call5.i = tail call noundef ptr @_ZNK3zmq14session_base_t10get_socketEv(ptr noundef nonnull align 8 dereferenceable(1624) %1)
  %vtable6.i = load ptr, ptr %this, align 8
  %vbase.offset.ptr7.i = getelementptr i8, ptr %vtable6.i, i64 -24
  %vbase.offset8.i = load i64, ptr %vbase.offset.ptr7.i, align 8
  %add.ptr9.i = getelementptr inbounds i8, ptr %this, i64 %vbase.offset8.i
  %session10.i = getelementptr inbounds i8, ptr %add.ptr9.i, i64 1488
  %2 = load ptr, ptr %session10.i, align 8
  %call11.i = tail call noundef nonnull align 8 dereferenceable(68) ptr @_ZNK3zmq14session_base_t12get_endpointEv(ptr noundef nonnull align 8 dereferenceable(1624) %2)
  tail call void @_ZN3zmq13socket_base_t27event_handshake_failed_authERKNS_19endpoint_uri_pair_tEi(ptr noundef nonnull align 8 dereferenceable(1825) %call5.i, ptr noundef nonnull align 8 dereferenceable(68) %call11.i, i32 noundef %status_code_numeric.0.i)
  br label %_ZN3zmq12zap_client_t22handle_zap_status_codeEv.exit

_ZN3zmq12zap_client_t22handle_zap_status_codeEv.exit: ; preds = %entry, %sw.epilog.i
  %call = tail call noundef nonnull align 1 dereferenceable(1) ptr @_ZNSt7__cxx1112basic_stringIcSt11char_traitsIcESaIcEEixEm(ptr noundef nonnull align 8 dereferenceable(32) %status_code.i, i64 noundef 0)
  %3 = load i8, ptr %call, align 1
  switch i8 %3, label %sw.default [
    i8 50, label %sw.bb
    i8 51, label %sw.epilog
  ]

sw.bb:                                            ; preds = %_ZN3zmq12zap_client_t22handle_zap_status_codeEv.exit
  %_zap_reply_ok_state = getelementptr inbounds i8, ptr %this, i64 76
  %4 = load i32, ptr %_zap_reply_ok_state, align 4
  br label %sw.epilog

sw.default:                                       ; preds = %_ZN3zmq12zap_client_t22handle_zap_status_codeEv.exit
  br label %sw.epilog

sw.epilog:                                        ; preds = %_ZN3zmq12zap_client_t22handle_zap_status_codeEv.exit, %sw.default, %sw.bb
  %.sink = phi i32 [ 5, %sw.default ], [ %4, %sw.bb ], [ 6, %_ZN3zmq12zap_client_t22handle_zap_status_codeEv.exit ]
  %state4 = getelementptr inbounds i8, ptr %this, i64 72
  store i32 %.sink, ptr %state4, align 8
  ret void
}